; ModuleID = 'source-C-CXX/43/992.c'
source_filename = "source-C-CXX/43/992.c"
target datalayout = "e-m:e-p270:32:32-p271:32:32-p272:64:64-i64:64-f80:128-n8:16:32:64-S128"
target triple = "x86_64-pc-linux-gnu"

@.str = private unnamed_addr constant [3 x i8] c"%d\00", align 1
@.str.1 = private unnamed_addr constant [4 x i8] c"%d\0A\00", align 1

; Function Attrs: nofree nounwind sspstrong uwtable
define dso_local i32 @main() local_unnamed_addr #0 {
  %1 = alloca i32, align 4
  %2 = bitcast i32* %1 to i8*
  call void @llvm.lifetime.start.p0i8(i64 4, i8* nonnull %2) #3
  %3 = call i32 (i8*, ...) @__isoc99_scanf(i8* getelementptr inbounds ([3 x i8], [3 x i8]* @.str, i64 0, i64 0), i32* nonnull %1)
  %4 = load i32, i32* %1, align 4, !tbaa !5
  %5 = icmp eq i32 %4, 0
  br i1 %5, label %16, label %6

6:                                                ; preds = %0, %6
  %7 = phi i32 [ %11, %6 ], [ 0, %0 ]
  %8 = phi i32 [ %12, %6 ], [ %4, %0 ]
  %9 = mul nsw i32 %7, 10
  %10 = srem i32 %8, 10
  %11 = add nsw i32 %9, %10
  %12 = sdiv i32 %8, 10
  %13 = add i32 %8, 9
  %14 = icmp ult i32 %13, 19
  br i1 %14, label %15, label %6, !llvm.loop !9

15:                                               ; preds = %6
  store i32 %12, i32* %1, align 4, !tbaa !5
  br label %16

16:                                               ; preds = %15, %0
  %17 = phi i32 [ %11, %15 ], [ 0, %0 ]
  %18 = call i32 (i8*, ...) @__isoc99_scanf(i8* getelementptr inbounds ([3 x i8], [3 x i8]* @.str, i64 0, i64 0), i32* nonnull %1)
  %19 = load i32, i32* %1, align 4, !tbaa !5
  %20 = icmp eq i32 %19, 0
  br i1 %20, label %31, label %21

21:                                               ; preds = %16, %21
  %22 = phi i32 [ %26, %21 ], [ 0, %16 ]
  %23 = phi i32 [ %27, %21 ], [ %19, %16 ]
  %24 = mul nsw i32 %22, 10
  %25 = srem i32 %23, 10
  %26 = add nsw i32 %24, %25
  %27 = sdiv i32 %23, 10
  %28 = add i32 %23, 9
  %29 = icmp ult i32 %28, 19
  br i1 %29, label %30, label %21, !llvm.loop !9

30:                                               ; preds = %21
  store i32 %27, i32* %1, align 4, !tbaa !5
  br label %31

31:                                               ; preds = %30, %16
  %32 = phi i32 [ %26, %30 ], [ 0, %16 ]
  %33 = call i32 (i8*, ...) @__isoc99_scanf(i8* getelementptr inbounds ([3 x i8], [3 x i8]* @.str, i64 0, i64 0), i32* nonnull %1)
  %34 = load i32, i32* %1, align 4, !tbaa !5
  %35 = icmp eq i32 %34, 0
  br i1 %35, label %46, label %36

36:                                               ; preds = %31, %36
  %37 = phi i32 [ %41, %36 ], [ 0, %31 ]
  %38 = phi i32 [ %42, %36 ], [ %34, %31 ]
  %39 = mul nsw i32 %37, 10
  %40 = srem i32 %38, 10
  %41 = add nsw i32 %39, %40
  %42 = sdiv i32 %38, 10
  %43 = add i32 %38, 9
  %44 = icmp ult i32 %43, 19
  br i1 %44, label %45, label %36, !llvm.loop !9

45:                                               ; preds = %36
  store i32 %42, i32* %1, align 4, !tbaa !5
  br label %46

46:                                               ; preds = %45, %31
  %47 = phi i32 [ %41, %45 ], [ 0, %31 ]
  %48 = call i32 (i8*, ...) @__isoc99_scanf(i8* getelementptr inbounds ([3 x i8], [3 x i8]* @.str, i64 0, i64 0), i32* nonnull %1)
  %49 = load i32, i32* %1, align 4, !tbaa !5
  %50 = icmp eq i32 %49, 0
  br i1 %50, label %61, label %51

51:                                               ; preds = %46, %51
  %52 = phi i32 [ %56, %51 ], [ 0, %46 ]
  %53 = phi i32 [ %57, %51 ], [ %49, %46 ]
  %54 = mul nsw i32 %52, 10
  %55 = srem i32 %53, 10
  %56 = add nsw i32 %54, %55
  %57 = sdiv i32 %53, 10
  %58 = add i32 %53, 9
  %59 = icmp ult i32 %58, 19
  br i1 %59, label %60, label %51, !llvm.loop !9

60:                                               ; preds = %51
  store i32 %57, i32* %1, align 4, !tbaa !5
  br label %61

61:                                               ; preds = %60, %46
  %62 = phi i32 [ %56, %60 ], [ 0, %46 ]
  %63 = call i32 (i8*, ...) @__isoc99_scanf(i8* getelementptr inbounds ([3 x i8], [3 x i8]* @.str, i64 0, i64 0), i32* nonnull %1)
  %64 = load i32, i32* %1, align 4, !tbaa !5
  %65 = icmp eq i32 %64, 0
  br i1 %65, label %76, label %66

66:                                               ; preds = %61, %66
  %67 = phi i32 [ %71, %66 ], [ 0, %61 ]
  %68 = phi i32 [ %72, %66 ], [ %64, %61 ]
  %69 = mul nsw i32 %67, 10
  %70 = srem i32 %68, 10
  %71 = add nsw i32 %69, %70
  %72 = sdiv i32 %68, 10
  %73 = add i32 %68, 9
  %74 = icmp ult i32 %73, 19
  br i1 %74, label %75, label %66, !llvm.loop !9

75:                                               ; preds = %66
  store i32 %72, i32* %1, align 4, !tbaa !5
  br label %76

76:                                               ; preds = %75, %61
  %77 = phi i32 [ %71, %75 ], [ 0, %61 ]
  %78 = call i32 (i8*, ...) @__isoc99_scanf(i8* getelementptr inbounds ([3 x i8], [3 x i8]* @.str, i64 0, i64 0), i32* nonnull %1)
  %79 = load i32, i32* %1, align 4, !tbaa !5
  %80 = icmp eq i32 %79, 0
  br i1 %80, label %91, label %81

81:                                               ; preds = %76, %81
  %82 = phi i32 [ %86, %81 ], [ 0, %76 ]
  %83 = phi i32 [ %87, %81 ], [ %79, %76 ]
  %84 = mul nsw i32 %82, 10
  %85 = srem i32 %83, 10
  %86 = add nsw i32 %84, %85
  %87 = sdiv i32 %83, 10
  %88 = add i32 %83, 9
  %89 = icmp ult i32 %88, 19
  br i1 %89, label %90, label %81, !llvm.loop !9

90:                                               ; preds = %81
  store i32 %87, i32* %1, align 4, !tbaa !5
  br label %91

91:                                               ; preds = %90, %76
  %92 = phi i32 [ %86, %90 ], [ 0, %76 ]
  %93 = call i32 (i8*, ...) @printf(i8* nonnull dereferenceable(1) getelementptr inbounds ([4 x i8], [4 x i8]* @.str.1, i64 0, i64 0), i32 %17)
  %94 = call i32 (i8*, ...) @printf(i8* nonnull dereferenceable(1) getelementptr inbounds ([4 x i8], [4 x i8]* @.str.1, i64 0, i64 0), i32 %32)
  %95 = call i32 (i8*, ...) @printf(i8* nonnull dereferenceable(1) getelementptr inbounds ([4 x i8], [4 x i8]* @.str.1, i64 0, i64 0), i32 %47)
  %96 = call i32 (i8*, ...) @printf(i8* nonnull dereferenceable(1) getelementptr inbounds ([4 x i8], [4 x i8]* @.str.1, i64 0, i64 0), i32 %62)
  %97 = call i32 (i8*, ...) @printf(i8* nonnull dereferenceable(1) getelementptr inbounds ([4 x i8], [4 x i8]* @.str.1, i64 0, i64 0), i32 %77)
  %98 = call i32 (i8*, ...) @printf(i8* nonnull dereferenceable(1) getelementptr inbounds ([4 x i8], [4 x i8]* @.str.1, i64 0, i64 0), i32 %92)
  call void @llvm.lifetime.end.p0i8(i64 4, i8* nonnull %2) #3
  ret i32 0
}

; Function Attrs: argmemonly mustprogress nofree nosync nounwind willreturn
declare void @llvm.lifetime.start.p0i8(i64 immarg, i8* nocapture) #1

; Function Attrs: nofree nounwind
declare noundef i32 @__isoc99_scanf(i8* nocapture noundef readonly, ...) local_unnamed_addr #2

; Function Attrs: nofree nounwind
declare noundef i32 @printf(i8* nocapture noundef readonly, ...) local_unnamed_addr #2

; Function Attrs: argmemonly mustprogress nofree nosync nounwind willreturn
declare void @llvm.lifetime.end.p0i8(i64 immarg, i8* nocapture) #1


!llvm.module.flags = !{!0, !1, !2, !3}
!llvm.ident = !{!4}

!0 = !{i32 1, !"wchar_size", i32 4}
!1 = !{i32 7, !"PIC Level", i32 2}
!2 = !{i32 7, !"PIE Level", i32 2}
!3 = !{i32 7, !"uwtable", i32 1}
!4 = !{!"clang version 13.0.0"}
!5 = !{!6, !6, i64 0}
!6 = !{!"int", !7, i64 0}
!7 = !{!"omnipotent char", !8, i64 0}
!8 = !{!"Simple C/C++ TBAA"}
!9 = distinct !{!9, !10}
!10 = !{!"llvm.loop.mustprogress"}
